target datalayout = "e-m:e-p270:32:32-p271:32:32-p272:64:64-i64:64-i128:128-f80:128-n8:16:32:64-S128"
target triple = "x86_64-pc-linux-gnu"

%struct.expert_field = type { i32, i32 }
%struct.ext_value_string_t = type { i32, ptr, i32 }

@ansi_a_elem_1_max = internal global i32 0, align 4
@ansi_a_elem_1_strings = global ptr null, align 8
@.str.282 = private unnamed_addr constant [1 x i8] zeroinitializer, align 1
@ei_ansi_a_extraneous_data = internal global %struct.expert_field zeroinitializer, align 4
@hf_ansi_a_elem_id = internal global i32 0, align 4
@ei_ansi_a_missing_mand_elem = internal global %struct.expert_field zeroinitializer, align 4
@.str.1003 = private unnamed_addr constant [5 x i8] c"%s%s\00", align 1
@.str.1753 = private unnamed_addr constant [71 x i8] c"Missing Mandatory element (0x%02x) %s%s, rest of dissection is suspect\00", align 1

; Function Attrs: null_pointer_is_valid sspstrong uwtable
define internal zeroext i16 @elem_t(ptr noundef %0, ptr noundef %1, ptr noundef %2, i32 noundef %3, i32 noundef %4, ptr noundef %5, ptr noundef %6) #1 {
  %8 = alloca i16, align 2
  %9 = alloca ptr, align 8
  %10 = alloca ptr, align 8
  %11 = alloca ptr, align 8
  %12 = alloca i32, align 4
  %13 = alloca i32, align 4
  %14 = alloca ptr, align 8
  %15 = alloca ptr, align 8
  %16 = alloca i8, align 1
  %17 = alloca i32, align 4
  %18 = alloca i16, align 2
  %19 = alloca i32, align 4
  store ptr %0, ptr %9, align 8
  store ptr %1, ptr %10, align 8
  store ptr %2, ptr %11, align 8
  store i32 %3, ptr %12, align 4
  store i32 %4, ptr %13, align 4
  store ptr %5, ptr %14, align 8
  store ptr %6, ptr %15, align 8
  call void @llvm.lifetime.start.p0(i64 1, ptr %16) #8
  call void @llvm.lifetime.start.p0(i64 4, ptr %17) #8
  call void @llvm.lifetime.start.p0(i64 2, ptr %18) #8
  %20 = load i32, ptr %13, align 4
  store i32 %20, ptr %17, align 4
  store i16 0, ptr %18, align 2
  %21 = load i32, ptr %12, align 4
  %22 = icmp slt i32 %21, 0
  br i1 %22, label %28, label %23

23:                                               ; preds = %7
  %24 = load i32, ptr %12, align 4
  %25 = load i32, ptr @ansi_a_elem_1_max, align 4
  %26 = sub i32 %25, 1
  %27 = icmp uge i32 %24, %26
  br i1 %27, label %28, label %33

28:                                               ; preds = %23, %7
  %29 = load ptr, ptr %9, align 8
  %30 = load i32, ptr %13, align 4
  %31 = call i32 @tvb_reported_length_remaining(ptr noundef %29, i32 noundef %30)
  %32 = trunc i32 %31 to i16
  store i16 %32, ptr %8, align 2
  store i32 1, ptr %19, align 4
  br label %77

33:                                               ; preds = %23
  %34 = load ptr, ptr %9, align 8
  %35 = load i32, ptr %17, align 4
  %36 = call zeroext i8 @tvb_get_uint8(ptr noundef %34, i32 noundef %35)
  store i8 %36, ptr %16, align 1
  %37 = load i8, ptr %16, align 1
  %38 = zext i8 %37 to i32
  %39 = load ptr, ptr @ansi_a_elem_1_strings, align 8
  %40 = load i32, ptr %12, align 4
  %41 = zext i32 %40 to i64
  %42 = getelementptr %struct.ext_value_string_t, ptr %39, i64 %41
  %43 = getelementptr inbounds nuw %struct.ext_value_string_t, ptr %42, i32 0, i32 0
  %44 = load i32, ptr %43, align 8
  %45 = trunc i32 %44 to i8
  %46 = zext i8 %45 to i32
  %47 = icmp eq i32 %38, %46
  br i1 %47, label %48, label %75

48:                                               ; preds = %33
  %49 = load ptr, ptr %11, align 8
  %50 = load i32, ptr @hf_ansi_a_elem_id, align 4
  %51 = load ptr, ptr %9, align 8
  %52 = load i32, ptr %17, align 4
  %53 = load i8, ptr %16, align 1
  %54 = zext i8 %53 to i32
  %55 = load ptr, ptr @ansi_a_elem_1_strings, align 8
  %56 = load i32, ptr %12, align 4
  %57 = zext i32 %56 to i64
  %58 = getelementptr %struct.ext_value_string_t, ptr %55, i64 %57
  %59 = getelementptr inbounds nuw %struct.ext_value_string_t, ptr %58, i32 0, i32 1
  %60 = load ptr, ptr %59, align 8
  %61 = load ptr, ptr %14, align 8
  %62 = icmp eq ptr %61, null
  br i1 %62, label %69, label %63

63:                                               ; preds = %48
  %64 = load ptr, ptr %14, align 8
  %65 = getelementptr i8, ptr %64, i64 0
  %66 = load i8, ptr %65, align 1
  %67 = sext i8 %66 to i32
  %68 = icmp eq i32 %67, 0
  br i1 %68, label %69, label %70

69:                                               ; preds = %63, %48
  br label %72

70:                                               ; preds = %63
  %71 = load ptr, ptr %14, align 8
  br label %72

72:                                               ; preds = %70, %69
  %73 = phi ptr [ @.str.282, %69 ], [ %71, %70 ]
  %74 = call ptr (ptr, i32, ptr, i32, i32, i32, ptr, ...) @proto_tree_add_uint_format(ptr noundef %49, i32 noundef %50, ptr noundef %51, i32 noundef %52, i32 noundef 1, i32 noundef %54, ptr noundef @.str.1003, ptr noundef %60, ptr noundef %73)
  store i16 1, ptr %18, align 2
  br label %75

75:                                               ; preds = %72, %33
  %76 = load i16, ptr %18, align 2
  store i16 %76, ptr %8, align 2
  store i32 1, ptr %19, align 4
  br label %77

77:                                               ; preds = %75, %28
  call void @llvm.lifetime.end.p0(i64 2, ptr %18) #8
  call void @llvm.lifetime.end.p0(i64 4, ptr %17) #8
  call void @llvm.lifetime.end.p0(i64 1, ptr %16) #8
  %78 = load i16, ptr %8, align 2
  ret i16 %78
}

; Function Attrs: null_pointer_is_valid sspstrong uwtable
define internal void @dtap_add_srvc_req(ptr noundef %0, ptr noundef %1, ptr noundef %2, i32 noundef %3, i32 noundef %4, ptr noundef %5) #1 {
  %7 = alloca ptr, align 8
  %8 = alloca ptr, align 8
  %9 = alloca ptr, align 8
  %10 = alloca i32, align 4
  %11 = alloca i32, align 4
  %12 = alloca ptr, align 8
  %13 = alloca i32, align 4
  %14 = alloca i32, align 4
  %15 = alloca i32, align 4
  %16 = alloca i32, align 4
  store ptr %0, ptr %7, align 8
  store ptr %1, ptr %8, align 8
  store ptr %2, ptr %9, align 8
  store i32 %3, ptr %10, align 4
  store i32 %4, ptr %11, align 4
  store ptr %5, ptr %12, align 8
  call void @llvm.lifetime.start.p0(i64 4, ptr %13) #8
  call void @llvm.lifetime.start.p0(i64 4, ptr %14) #8
  call void @llvm.lifetime.start.p0(i64 4, ptr %15) #8
  %17 = load i32, ptr %10, align 4
  store i32 %17, ptr %13, align 4
  %18 = load i32, ptr %11, align 4
  store i32 %18, ptr %15, align 4
  %19 = load ptr, ptr %7, align 8
  %20 = load ptr, ptr %8, align 8
  %21 = load ptr, ptr %9, align 8
  %22 = load i32, ptr %13, align 4
  %23 = load i32, ptr %15, align 4
  %24 = load ptr, ptr %12, align 8
  %25 = call zeroext i16 @elem_tlv(ptr noundef %19, ptr noundef %20, ptr noundef %21, i32 noundef 68, i32 noundef %22, i32 noundef %23, ptr noundef @.str.282, ptr noundef %24)
  %26 = zext i16 %25 to i32
  store i32 %26, ptr %14, align 4
  %27 = icmp ugt i32 %26, 0
  br i1 %27, label %28, label %35

28:                                               ; preds = %6
  %29 = load i32, ptr %14, align 4
  %30 = load i32, ptr %13, align 4
  %31 = add i32 %30, %29
  store i32 %31, ptr %13, align 4
  %32 = load i32, ptr %14, align 4
  %33 = load i32, ptr %15, align 4
  %34 = sub i32 %33, %32
  store i32 %34, ptr %15, align 4
  br label %49

35:                                               ; preds = %6
  %36 = load ptr, ptr %9, align 8
  %37 = load ptr, ptr %8, align 8
  %38 = load ptr, ptr %7, align 8
  %39 = load i32, ptr %13, align 4
  %40 = load ptr, ptr @ansi_a_elem_1_strings, align 8
  %41 = getelementptr %struct.ext_value_string_t, ptr %40, i64 68
  %42 = getelementptr inbounds nuw %struct.ext_value_string_t, ptr %41, i32 0, i32 0
  %43 = load i32, ptr %42, align 8
  %44 = load ptr, ptr @ansi_a_elem_1_strings, align 8
  %45 = getelementptr %struct.ext_value_string_t, ptr %44, i64 68
  %46 = getelementptr inbounds nuw %struct.ext_value_string_t, ptr %45, i32 0, i32 1
  %47 = load ptr, ptr %46, align 8
  %48 = call ptr (ptr, ptr, ptr, ptr, i32, i32, ptr, ...) @proto_tree_add_expert_format(ptr noundef %36, ptr noundef %37, ptr noundef @ei_ansi_a_missing_mand_elem, ptr noundef %38, i32 noundef %39, i32 noundef 0, ptr noundef @.str.1753, i32 noundef %43, ptr noundef %47, ptr noundef @.str.282)
  br label %49

49:                                               ; preds = %35, %28
  %50 = load i32, ptr %15, align 4
  %51 = icmp ule i32 %50, 0
  br i1 %51, label %52, label %53

52:                                               ; preds = %49
  store i32 1, ptr %16, align 4
  br label %248

53:                                               ; preds = %49
  %54 = load ptr, ptr %7, align 8
  %55 = load ptr, ptr %8, align 8
  %56 = load ptr, ptr %9, align 8
  %57 = load i32, ptr %13, align 4
  %58 = load i32, ptr %15, align 4
  %59 = load ptr, ptr %12, align 8
  %60 = call zeroext i16 @elem_tlv(ptr noundef %54, ptr noundef %55, ptr noundef %56, i32 noundef 13, i32 noundef %57, i32 noundef %58, ptr noundef @.str.282, ptr noundef %59)
  %61 = zext i16 %60 to i32
  store i32 %61, ptr %14, align 4
  %62 = icmp ugt i32 %61, 0
  br i1 %62, label %63, label %70

63:                                               ; preds = %53
  %64 = load i32, ptr %14, align 4
  %65 = load i32, ptr %13, align 4
  %66 = add i32 %65, %64
  store i32 %66, ptr %13, align 4
  %67 = load i32, ptr %14, align 4
  %68 = load i32, ptr %15, align 4
  %69 = sub i32 %68, %67
  store i32 %69, ptr %15, align 4
  br label %70

70:                                               ; preds = %63, %53
  %71 = load i32, ptr %15, align 4
  %72 = icmp ule i32 %71, 0
  br i1 %72, label %73, label %74

73:                                               ; preds = %70
  store i32 1, ptr %16, align 4
  br label %248

74:                                               ; preds = %70
  %75 = load ptr, ptr %7, align 8
  %76 = load ptr, ptr %8, align 8
  %77 = load ptr, ptr %9, align 8
  %78 = load i32, ptr %13, align 4
  %79 = load ptr, ptr %12, align 8
  %80 = call zeroext i16 @elem_tv(ptr noundef %75, ptr noundef %76, ptr noundef %77, i32 noundef 67, i32 noundef %78, ptr noundef @.str.282, ptr noundef %79)
  %81 = zext i16 %80 to i32
  store i32 %81, ptr %14, align 4
  %82 = icmp ugt i32 %81, 0
  br i1 %82, label %83, label %90

83:                                               ; preds = %74
  %84 = load i32, ptr %14, align 4
  %85 = load i32, ptr %13, align 4
  %86 = add i32 %85, %84
  store i32 %86, ptr %13, align 4
  %87 = load i32, ptr %14, align 4
  %88 = load i32, ptr %15, align 4
  %89 = sub i32 %88, %87
  store i32 %89, ptr %15, align 4
  br label %104

90:                                               ; preds = %74
  %91 = load ptr, ptr %9, align 8
  %92 = load ptr, ptr %8, align 8
  %93 = load ptr, ptr %7, align 8
  %94 = load i32, ptr %13, align 4
  %95 = load ptr, ptr @ansi_a_elem_1_strings, align 8
  %96 = getelementptr %struct.ext_value_string_t, ptr %95, i64 67
  %97 = getelementptr inbounds nuw %struct.ext_value_string_t, ptr %96, i32 0, i32 0
  %98 = load i32, ptr %97, align 8
  %99 = load ptr, ptr @ansi_a_elem_1_strings, align 8
  %100 = getelementptr %struct.ext_value_string_t, ptr %99, i64 67
  %101 = getelementptr inbounds nuw %struct.ext_value_string_t, ptr %100, i32 0, i32 1
  %102 = load ptr, ptr %101, align 8
  %103 = call ptr (ptr, ptr, ptr, ptr, i32, i32, ptr, ...) @proto_tree_add_expert_format(ptr noundef %91, ptr noundef %92, ptr noundef @ei_ansi_a_missing_mand_elem, ptr noundef %93, i32 noundef %94, i32 noundef 0, ptr noundef @.str.1753, i32 noundef %98, ptr noundef %102, ptr noundef @.str.282)
  br label %104

104:                                              ; preds = %90, %83
  %105 = load i32, ptr %15, align 4
  %106 = icmp ule i32 %105, 0
  br i1 %106, label %107, label %108

107:                                              ; preds = %104
  store i32 1, ptr %16, align 4
  br label %248

108:                                              ; preds = %104
  %109 = load ptr, ptr %7, align 8
  %110 = load ptr, ptr %8, align 8
  %111 = load ptr, ptr %9, align 8
  %112 = load i32, ptr %13, align 4
  %113 = load ptr, ptr %12, align 8
  %114 = call zeroext i16 @elem_t(ptr noundef %109, ptr noundef %110, ptr noundef %111, i32 noundef 82, i32 noundef %112, ptr noundef @.str.282, ptr noundef %113)
  %115 = zext i16 %114 to i32
  store i32 %115, ptr %14, align 4
  %116 = icmp ugt i32 %115, 0
  br i1 %116, label %117, label %124

117:                                              ; preds = %108
  %118 = load i32, ptr %14, align 4
  %119 = load i32, ptr %13, align 4
  %120 = add i32 %119, %118
  store i32 %120, ptr %13, align 4
  %121 = load i32, ptr %14, align 4
  %122 = load i32, ptr %15, align 4
  %123 = sub i32 %122, %121
  store i32 %123, ptr %15, align 4
  br label %124

124:                                              ; preds = %117, %108
  %125 = load i32, ptr %15, align 4
  %126 = icmp ule i32 %125, 0
  br i1 %126, label %127, label %128

127:                                              ; preds = %124
  store i32 1, ptr %16, align 4
  br label %248

128:                                              ; preds = %124
  %129 = load ptr, ptr %7, align 8
  %130 = load ptr, ptr %8, align 8
  %131 = load ptr, ptr %9, align 8
  %132 = load i32, ptr %13, align 4
  %133 = load i32, ptr %15, align 4
  %134 = load ptr, ptr %12, align 8
  %135 = call zeroext i16 @elem_tlv(ptr noundef %129, ptr noundef %130, ptr noundef %131, i32 noundef 12, i32 noundef %132, i32 noundef %133, ptr noundef @.str.282, ptr noundef %134)
  %136 = zext i16 %135 to i32
  store i32 %136, ptr %14, align 4
  %137 = icmp ugt i32 %136, 0
  br i1 %137, label %138, label %145

138:                                              ; preds = %128
  %139 = load i32, ptr %14, align 4
  %140 = load i32, ptr %13, align 4
  %141 = add i32 %140, %139
  store i32 %141, ptr %13, align 4
  %142 = load i32, ptr %14, align 4
  %143 = load i32, ptr %15, align 4
  %144 = sub i32 %143, %142
  store i32 %144, ptr %15, align 4
  br label %145

145:                                              ; preds = %138, %128
  %146 = load i32, ptr %15, align 4
  %147 = icmp ule i32 %146, 0
  br i1 %147, label %148, label %149

148:                                              ; preds = %145
  store i32 1, ptr %16, align 4
  br label %248

149:                                              ; preds = %145
  %150 = load ptr, ptr %7, align 8
  %151 = load ptr, ptr %8, align 8
  %152 = load ptr, ptr %9, align 8
  %153 = load i32, ptr %13, align 4
  %154 = load ptr, ptr %12, align 8
  %155 = call zeroext i16 @elem_tv(ptr noundef %150, ptr noundef %151, ptr noundef %152, i32 noundef 23, i32 noundef %153, ptr noundef @.str.282, ptr noundef %154)
  %156 = zext i16 %155 to i32
  store i32 %156, ptr %14, align 4
  %157 = icmp ugt i32 %156, 0
  br i1 %157, label %158, label %165

158:                                              ; preds = %149
  %159 = load i32, ptr %14, align 4
  %160 = load i32, ptr %13, align 4
  %161 = add i32 %160, %159
  store i32 %161, ptr %13, align 4
  %162 = load i32, ptr %14, align 4
  %163 = load i32, ptr %15, align 4
  %164 = sub i32 %163, %162
  store i32 %164, ptr %15, align 4
  br label %165

165:                                              ; preds = %158, %149
  %166 = load i32, ptr %15, align 4
  %167 = icmp ule i32 %166, 0
  br i1 %167, label %168, label %169

168:                                              ; preds = %165
  store i32 1, ptr %16, align 4
  br label %248

169:                                              ; preds = %165
  %170 = load ptr, ptr %7, align 8
  %171 = load ptr, ptr %8, align 8
  %172 = load ptr, ptr %9, align 8
  %173 = load i32, ptr %13, align 4
  %174 = load i32, ptr %15, align 4
  %175 = load ptr, ptr %12, align 8
  %176 = call zeroext i16 @elem_tlv(ptr noundef %170, ptr noundef %171, ptr noundef %172, i32 noundef 31, i32 noundef %173, i32 noundef %174, ptr noundef @.str.282, ptr noundef %175)
  %177 = zext i16 %176 to i32
  store i32 %177, ptr %14, align 4
  %178 = icmp ugt i32 %177, 0
  br i1 %178, label %179, label %186

179:                                              ; preds = %169
  %180 = load i32, ptr %14, align 4
  %181 = load i32, ptr %13, align 4
  %182 = add i32 %181, %180
  store i32 %182, ptr %13, align 4
  %183 = load i32, ptr %14, align 4
  %184 = load i32, ptr %15, align 4
  %185 = sub i32 %184, %183
  store i32 %185, ptr %15, align 4
  br label %186

186:                                              ; preds = %179, %169
  %187 = load i32, ptr %15, align 4
  %188 = icmp ule i32 %187, 0
  br i1 %188, label %189, label %190

189:                                              ; preds = %186
  store i32 1, ptr %16, align 4
  br label %248

190:                                              ; preds = %186
  %191 = load ptr, ptr %7, align 8
  %192 = load ptr, ptr %8, align 8
  %193 = load ptr, ptr %9, align 8
  %194 = load i32, ptr %13, align 4
  %195 = load i32, ptr %15, align 4
  %196 = load ptr, ptr %12, align 8
  %197 = call zeroext i16 @elem_tlv(ptr noundef %191, ptr noundef %192, ptr noundef %193, i32 noundef 86, i32 noundef %194, i32 noundef %195, ptr noundef @.str.282, ptr noundef %196)
  %198 = zext i16 %197 to i32
  store i32 %198, ptr %14, align 4
  %199 = icmp ugt i32 %198, 0
  br i1 %199, label %200, label %207

200:                                              ; preds = %190
  %201 = load i32, ptr %14, align 4
  %202 = load i32, ptr %13, align 4
  %203 = add i32 %202, %201
  store i32 %203, ptr %13, align 4
  %204 = load i32, ptr %14, align 4
  %205 = load i32, ptr %15, align 4
  %206 = sub i32 %205, %204
  store i32 %206, ptr %15, align 4
  br label %207

207:                                              ; preds = %200, %190
  %208 = load i32, ptr %15, align 4
  %209 = icmp ule i32 %208, 0
  br i1 %209, label %210, label %211

210:                                              ; preds = %207
  store i32 1, ptr %16, align 4
  br label %248

211:                                              ; preds = %207
  %212 = load ptr, ptr %7, align 8
  %213 = load ptr, ptr %8, align 8
  %214 = load ptr, ptr %9, align 8
  %215 = load i32, ptr %13, align 4
  %216 = load i32, ptr %15, align 4
  %217 = load ptr, ptr %12, align 8
  %218 = call zeroext i16 @elem_tlv(ptr noundef %212, ptr noundef %213, ptr noundef %214, i32 noundef 87, i32 noundef %215, i32 noundef %216, ptr noundef @.str.282, ptr noundef %217)
  %219 = zext i16 %218 to i32
  store i32 %219, ptr %14, align 4
  %220 = icmp ugt i32 %219, 0
  br i1 %220, label %221, label %228

221:                                              ; preds = %211
  %222 = load i32, ptr %14, align 4
  %223 = load i32, ptr %13, align 4
  %224 = add i32 %223, %222
  store i32 %224, ptr %13, align 4
  %225 = load i32, ptr %14, align 4
  %226 = load i32, ptr %15, align 4
  %227 = sub i32 %226, %225
  store i32 %227, ptr %15, align 4
  br label %228

228:                                              ; preds = %221, %211
  %229 = load i32, ptr %15, align 4
  %230 = icmp ule i32 %229, 0
  br i1 %230, label %231, label %232

231:                                              ; preds = %228
  store i32 1, ptr %16, align 4
  br label %248

232:                                              ; preds = %228
  %233 = load i32, ptr %15, align 4
  %234 = icmp ugt i32 %233, 0
  br i1 %234, label %235, label %247

235:                                              ; preds = %232
  %236 = load ptr, ptr %9, align 8
  %237 = load ptr, ptr %8, align 8
  %238 = load ptr, ptr %7, align 8
  %239 = load i32, ptr %13, align 4
  %240 = load i32, ptr %15, align 4
  %241 = sub i32 %240, 0
  %242 = call ptr @proto_tree_add_expert(ptr noundef %236, ptr noundef %237, ptr noundef @ei_ansi_a_extraneous_data, ptr noundef %238, i32 noundef %239, i32 noundef %241)
  %243 = load i32, ptr %15, align 4
  %244 = sub i32 %243, 0
  %245 = load i32, ptr %13, align 4
  %246 = add i32 %245, %244
  store i32 %246, ptr %13, align 4
  br label %247

247:                                              ; preds = %235, %232
  store i32 0, ptr %16, align 4
  br label %248

248:                                              ; preds = %247, %231, %210, %189, %168, %148, %127, %107, %73, %52
  call void @llvm.lifetime.end.p0(i64 4, ptr %15) #8
  call void @llvm.lifetime.end.p0(i64 4, ptr %14) #8
  call void @llvm.lifetime.end.p0(i64 4, ptr %13) #8
  %249 = load i32, ptr %16, align 4
  switch i32 %249, label %251 [
    i32 0, label %250
    i32 1, label %250
  ]

250:                                              ; preds = %248, %248
  ret void

251:                                              ; preds = %248
  unreachable
}