; Function Attrs: null_pointer_is_valid sspstrong uwtable
define internal void @dtap_add_srvc_req(ptr noundef %0, ptr noundef %1, ptr noundef %2, i32 noundef %3, i32 noundef %4, ptr noundef %5) #1 {
  %7 = tail call fastcc zeroext i16 @elem_tlv(ptr noundef %0, ptr noundef %1, ptr noundef %2, i32 noundef 68, i32 noundef %3, ptr noundef nonnull @.str.282, ptr noundef %5)
  %.not = icmp eq i16 %7, 0
  br i1 %.not, label %12, label %8

8:                                                ; preds = %6
  %9 = zext i16 %7 to i32
  %10 = add i32 %3, %9
  %11 = sub i32 %4, %9
  br label %19

12:                                               ; preds = %6
  %13 = load ptr, ptr @ansi_a_elem_1_strings, align 8
  %14 = getelementptr i8, ptr %13, i64 1632
  %15 = load i32, ptr %14, align 8
  %16 = getelementptr i8, ptr %13, i64 1640
  %17 = load ptr, ptr %16, align 8
  %18 = tail call ptr (ptr, ptr, ptr, ptr, i32, i32, ptr, ...) @proto_tree_add_expert_format(ptr noundef %2, ptr noundef %1, ptr noundef nonnull @ei_ansi_a_missing_mand_elem, ptr noundef %0, i32 noundef %3, i32 noundef 0, ptr noundef nonnull @.str.1753, i32 noundef %15, ptr noundef %17, ptr noundef nonnull @.str.282)
  br label %19

19:                                               ; preds = %12, %8
  %.0113 = phi i32 [ %10, %8 ], [ %3, %12 ]
  %.0 = phi i32 [ %11, %8 ], [ %4, %12 ]
  %20 = icmp eq i32 %.0, 0
  br i1 %20, label %94, label %21

21:                                               ; preds = %19
  %22 = tail call fastcc zeroext i16 @elem_tlv(ptr noundef %0, ptr noundef %1, ptr noundef %2, i32 noundef 13, i32 noundef %.0113, ptr noundef nonnull @.str.282, ptr noundef %5)
  %23 = zext i16 %22 to i32
  %24 = add i32 %.0113, %23
  %25 = sub i32 %.0, %23
  %26 = icmp eq i32 %25, 0
  br i1 %26, label %94, label %27

27:                                               ; preds = %21
  %28 = tail call fastcc zeroext i16 @elem_tv(ptr noundef %0, ptr noundef %1, ptr noundef %2, i32 noundef 67, i32 noundef %24, ptr noundef %5)
  %.not132 = icmp eq i16 %28, 0
  br i1 %.not132, label %.thread, label %35

.thread:                                          ; preds = %27
  %29 = load ptr, ptr @ansi_a_elem_1_strings, align 8
  %30 = getelementptr i8, ptr %29, i64 1608
  %31 = load i32, ptr %30, align 8
  %32 = getelementptr i8, ptr %29, i64 1616
  %33 = load ptr, ptr %32, align 8
  %34 = tail call ptr (ptr, ptr, ptr, ptr, i32, i32, ptr, ...) @proto_tree_add_expert_format(ptr noundef %2, ptr noundef %1, ptr noundef nonnull @ei_ansi_a_missing_mand_elem, ptr noundef %0, i32 noundef %24, i32 noundef 0, ptr noundef nonnull @.str.1753, i32 noundef %31, ptr noundef %33, ptr noundef nonnull @.str.282)
  br label %40

35:                                               ; preds = %27
  %36 = zext i16 %28 to i32
  %37 = add i32 %24, %36
  %38 = sub i32 %25, %36
  %39 = icmp eq i32 %38, 0
  br i1 %39, label %94, label %40

40:                                               ; preds = %.thread, %35
  %.2142 = phi i32 [ %25, %.thread ], [ %38, %35 ]
  %.2115141 = phi i32 [ %24, %.thread ], [ %37, %35 ]
  %41 = load i32, ptr @ansi_a_elem_1_max, align 4
  %42 = add i32 %41, -84
  %.not.i = icmp ult i32 %42, -83
  br i1 %.not.i, label %46, label %43

43:                                               ; preds = %40
  %44 = tail call i32 @tvb_reported_length_remaining(ptr noundef %0, i32 noundef %.2115141)
  %45 = and i32 %44, 65535
  br label %elem_t.exit

46:                                               ; preds = %40
  %47 = tail call zeroext i8 @tvb_get_uint8(ptr noundef %0, i32 noundef %.2115141)
  %48 = load ptr, ptr @ansi_a_elem_1_strings, align 8
  %49 = getelementptr i8, ptr %48, i64 1968
  %50 = load i32, ptr %49, align 8
  %51 = trunc i32 %50 to i8
  %52 = icmp eq i8 %47, %51
  br i1 %52, label %53, label %elem_t.exit

53:                                               ; preds = %46
  %54 = zext i8 %47 to i32
  %55 = load i32, ptr @hf_ansi_a_elem_id, align 4
  %56 = getelementptr i8, ptr %48, i64 1976
  %57 = load ptr, ptr %56, align 8
  %58 = tail call ptr (ptr, i32, ptr, i32, i32, i32, ptr, ...) @proto_tree_add_uint_format(ptr noundef %2, i32 noundef %55, ptr noundef %0, i32 noundef %.2115141, i32 noundef 1, i32 noundef %54, ptr noundef nonnull @.str.1003, ptr noundef %57, ptr noundef nonnull @.str.282)
  br label %elem_t.exit

elem_t.exit:                                      ; preds = %43, %46, %53
  %.018.i = phi i32 [ %45, %43 ], [ 1, %53 ], [ 0, %46 ]
  %59 = icmp eq i32 %.2142, %.018.i
  br i1 %59, label %94, label %60

60:                                               ; preds = %elem_t.exit
  %61 = sub i32 %.2142, %.018.i
  %62 = add i32 %.018.i, %.2115141
  %63 = tail call fastcc zeroext i16 @elem_tlv(ptr noundef %0, ptr noundef %1, ptr noundef %2, i32 noundef 12, i32 noundef %62, ptr noundef nonnull @.str.282, ptr noundef %5)
  %64 = zext i16 %63 to i32
  %65 = icmp eq i32 %61, %64
  br i1 %65, label %94, label %66

66:                                               ; preds = %60
  %67 = add i32 %62, %64
  %68 = tail call fastcc zeroext i16 @elem_tv(ptr noundef %0, ptr noundef %1, ptr noundef %2, i32 noundef 23, i32 noundef %67, ptr noundef %5)
  %69 = zext i16 %68 to i32
  %70 = add nuw nsw i32 %69, %64
  %71 = icmp eq i32 %61, %70
  br i1 %71, label %94, label %72

72:                                               ; preds = %66
  %73 = sub i32 %61, %70
  %74 = add i32 %67, %69
  %75 = tail call fastcc zeroext i16 @elem_tlv(ptr noundef %0, ptr noundef %1, ptr noundef %2, i32 noundef 31, i32 noundef %74, ptr noundef nonnull @.str.282, ptr noundef %5)
  %76 = zext i16 %75 to i32
  %77 = icmp eq i32 %73, %76
  br i1 %77, label %94, label %78

78:                                               ; preds = %72
  %79 = sub i32 %73, %76
  %80 = add i32 %74, %76
  %81 = tail call fastcc zeroext i16 @elem_tlv(ptr noundef %0, ptr noundef %1, ptr noundef %2, i32 noundef 86, i32 noundef %80, ptr noundef nonnull @.str.282, ptr noundef %5)
  %82 = zext i16 %81 to i32
  %83 = icmp eq i32 %79, %82
  br i1 %83, label %94, label %84

84:                                               ; preds = %78
  %85 = sub i32 %79, %82
  %86 = add i32 %80, %82
  %87 = tail call fastcc zeroext i16 @elem_tlv(ptr noundef %0, ptr noundef %1, ptr noundef %2, i32 noundef 87, i32 noundef %86, ptr noundef nonnull @.str.282, ptr noundef %5)
  %88 = zext i16 %87 to i32
  %89 = icmp eq i32 %85, %88
  br i1 %89, label %94, label %90

90:                                               ; preds = %84
  %91 = sub i32 %85, %88
  %92 = add i32 %86, %88
  %93 = tail call ptr @proto_tree_add_expert(ptr noundef %2, ptr noundef %1, ptr noundef nonnull @ei_ansi_a_extraneous_data, ptr noundef %0, i32 noundef %92, i32 noundef %91)
  br label %94

94:                                               ; preds = %84, %78, %72, %66, %60, %elem_t.exit, %35, %21, %19, %90
  ret void
}